target datalayout = "e-m:e-p270:32:32-p271:32:32-p272:64:64-i64:64-i128:128-f80:128-n8:16:32:64-S128"
target triple = "x86_64-unknown-linux-gnu"

@.str.15 = private unnamed_addr constant [26 x i8] c"%a, %d %b %Y %H:%M:%S GMT\00", align 1
@.str.55 = private unnamed_addr constant [37 x i8] c"258EAFA5-E914-47DA-95CA-C5AB0DC85B11\00", align 1
@.str.56 = private unnamed_addr constant [86 x i8] c"HTTP/1.1 500 Internal Server Error\0D\0AServer: QEMU VNC\0D\0ADate: %s\0D\0AConnection: close\0D\0A\0D\0A\00", align 1
@.str.57 = private unnamed_addr constant [164 x i8] c"HTTP/1.1 101 Switching Protocols\0D\0AServer: QEMU VNC\0D\0ADate: %s\0D\0AUpgrade: websocket\0D\0AConnection: Upgrade\0D\0ASec-WebSocket-Accept: %s\0D\0ASec-WebSocket-Protocol: binary\0D\0A\0D\0A\00", align 1
@.str.58 = private unnamed_addr constant [132 x i8] c"HTTP/1.1 101 Switching Protocols\0D\0AServer: QEMU VNC\0D\0ADate: %s\0D\0AUpgrade: websocket\0D\0AConnection: Upgrade\0D\0ASec-WebSocket-Accept: %s\0D\0A\0D\0A\00", align 1

; Function Attrs: nounwind sspstrong uwtable
define internal void @glib_autoptr_clear_GDateTime(ptr noundef %_ptr) #0 {
entry:
  %_ptr.addr = alloca ptr, align 8
  store ptr %_ptr, ptr %_ptr.addr, align 8
  %0 = load ptr, ptr %_ptr.addr, align 8
  %tobool = icmp ne ptr %0, null
  br i1 %tobool, label %if.then, label %if.end

if.then:                                          ; preds = %entry
  %1 = load ptr, ptr %_ptr.addr, align 8
  call void @g_date_time_unref(ptr noundef %1)
  br label %if.end

if.end:                                           ; preds = %if.then, %entry
  ret void
}

; Function Attrs: nounwind sspstrong uwtable
define internal void @glib_autoptr_cleanup_GDateTime(ptr noundef %_ptr) #0 {
entry:
  %_ptr.addr = alloca ptr, align 8
  store ptr %_ptr, ptr %_ptr.addr, align 8
  %0 = load ptr, ptr %_ptr.addr, align 8
  %1 = load ptr, ptr %0, align 8
  call void @glib_autoptr_clear_GDateTime(ptr noundef %1)
  ret void
}

; Function Attrs: nounwind sspstrong uwtable
define internal ptr @qio_channel_websock_date_str() #0 {
entry:
  %now = alloca ptr, align 8
  %call = call ptr @g_date_time_new_now_utc()
  store ptr %call, ptr %now, align 8
  %0 = load ptr, ptr %now, align 8
  %call1 = call noalias ptr @g_date_time_format(ptr noundef %0, ptr noundef @.str.15)
  call void @glib_autoptr_cleanup_GDateTime(ptr noundef %now)
  ret ptr %call1
}

; Function Attrs: nounwind sspstrong uwtable
define internal void @qio_channel_websock_handshake_send_res_err(ptr noundef %ioc, ptr noundef %resdata) #0 {
entry:
  %ioc.addr = alloca ptr, align 8
  %resdata.addr = alloca ptr, align 8
  %date = alloca ptr, align 8
  store ptr %ioc, ptr %ioc.addr, align 8
  store ptr %resdata, ptr %resdata.addr, align 8
  %call = call ptr @qio_channel_websock_date_str()
  store ptr %call, ptr %date, align 8
  %0 = load ptr, ptr %ioc.addr, align 8
  %1 = load ptr, ptr %resdata.addr, align 8
  %2 = load ptr, ptr %date, align 8
  call void (ptr, ptr, ...) @qio_channel_websock_handshake_send_res(ptr noundef %0, ptr noundef %1, ptr noundef %2)
  %3 = load ptr, ptr %date, align 8
  call void @g_free(ptr noundef %3)
  ret void
}

; Function Attrs: nounwind sspstrong uwtable
define internal void @qio_channel_websock_handshake_send_res_ok(ptr noundef %ioc, ptr noundef %key, i1 noundef zeroext %use_protocols, ptr noundef %errp) #0 {
entry:
  %ioc.addr = alloca ptr, align 8
  %key.addr = alloca ptr, align 8
  %use_protocols.addr = alloca i8, align 1
  %errp.addr = alloca ptr, align 8
  %combined_key = alloca [61 x i8], align 16
  %accept = alloca ptr, align 8
  %date = alloca ptr, align 8
  store ptr %ioc, ptr %ioc.addr, align 8
  store ptr %key, ptr %key.addr, align 8
  %frombool = zext i1 %use_protocols to i8
  store i8 %frombool, ptr %use_protocols.addr, align 1
  store ptr %errp, ptr %errp.addr, align 8
  store ptr null, ptr %accept, align 8
  store ptr null, ptr %date, align 8
  %arraydecay = getelementptr inbounds [61 x i8], ptr %combined_key, i64 0, i64 0
  %0 = load ptr, ptr %key.addr, align 8
  %call = call i64 @g_strlcpy(ptr noundef %arraydecay, ptr noundef %0, i64 noundef 25)
  %arraydecay1 = getelementptr inbounds [61 x i8], ptr %combined_key, i64 0, i64 0
  %call2 = call i64 @g_strlcat(ptr noundef %arraydecay1, ptr noundef @.str.55, i64 noundef 61)
  %arraydecay3 = getelementptr inbounds [61 x i8], ptr %combined_key, i64 0, i64 0
  %1 = load ptr, ptr %errp.addr, align 8
  %call4 = call i32 @qcrypto_hash_base64(i32 noundef 1, ptr noundef %arraydecay3, i64 noundef 60, ptr noundef %accept, ptr noundef %1)
  %cmp = icmp slt i32 %call4, 0
  br i1 %cmp, label %if.then, label %if.end

if.then:                                          ; preds = %entry
  %2 = load ptr, ptr %ioc.addr, align 8
  call void @qio_channel_websock_handshake_send_res_err(ptr noundef %2, ptr noundef @.str.56)
  br label %return

if.end:                                           ; preds = %entry
  %call5 = call ptr @qio_channel_websock_date_str()
  store ptr %call5, ptr %date, align 8
  %3 = load i8, ptr %use_protocols.addr, align 1
  %tobool = trunc i8 %3 to i1
  br i1 %tobool, label %if.then6, label %if.else

if.then6:                                         ; preds = %if.end
  %4 = load ptr, ptr %ioc.addr, align 8
  %5 = load ptr, ptr %date, align 8
  %6 = load ptr, ptr %accept, align 8
  call void (ptr, ptr, ...) @qio_channel_websock_handshake_send_res(ptr noundef %4, ptr noundef @.str.57, ptr noundef %5, ptr noundef %6)
  br label %if.end7

if.else:                                          ; preds = %if.end
  %7 = load ptr, ptr %ioc.addr, align 8
  %8 = load ptr, ptr %date, align 8
  %9 = load ptr, ptr %accept, align 8
  call void (ptr, ptr, ...) @qio_channel_websock_handshake_send_res(ptr noundef %7, ptr noundef @.str.58, ptr noundef %8, ptr noundef %9)
  br label %if.end7

if.end7:                                          ; preds = %if.else, %if.then6
  %10 = load ptr, ptr %date, align 8
  call void @g_free(ptr noundef %10)
  %11 = load ptr, ptr %accept, align 8
  call void @g_free(ptr noundef %11)
  br label %return

return:                                           ; preds = %if.end7, %if.then
  ret void
}