; Function Attrs: nounwind sspstrong uwtable
define internal fastcc void @qio_channel_websock_handshake_send_res_ok(ptr noundef %ioc, ptr noundef nonnull %key, i1 noundef zeroext %use_protocols, ptr noundef nonnull %errp) unnamed_addr #0 {
entry:
  %combined_key = alloca [61 x i8], align 16
  %accept = alloca ptr, align 8
  store ptr null, ptr %accept, align 8
  %call = call i64 @g_strlcpy(ptr noundef nonnull %combined_key, ptr noundef nonnull %key, i64 noundef 25) #15
  %call2 = call i64 @g_strlcat(ptr noundef nonnull %combined_key, ptr noundef nonnull @.str.55, i64 noundef 61) #15
  %call4 = call i32 @qcrypto_hash_base64(i32 noundef 1, ptr noundef nonnull %combined_key, i64 noundef 60, ptr noundef nonnull %accept, ptr noundef nonnull %errp) #15
  %cmp = icmp slt i32 %call4, 0
  %call.i.i = call ptr @g_date_time_new_now_utc() #15
  %call1.i.i = call noalias ptr @g_date_time_format(ptr noundef %call.i.i, ptr noundef nonnull @.str.15) #15
  %tobool.not.i.i.i.i = icmp eq ptr %call.i.i, null
  br i1 %cmp, label %if.then, label %if.end

if.then:                                          ; preds = %entry
  br i1 %tobool.not.i.i.i.i, label %qio_channel_websock_handshake_send_res_err.exit, label %if.then.i.i.i.i

if.then.i.i.i.i:                                  ; preds = %if.then
  call void @g_date_time_unref(ptr noundef nonnull %call.i.i) #15
  br label %qio_channel_websock_handshake_send_res_err.exit

qio_channel_websock_handshake_send_res_err.exit:  ; preds = %if.then, %if.then.i.i.i.i
  call void (ptr, ptr, ...) @qio_channel_websock_handshake_send_res(ptr noundef %ioc, ptr noundef nonnull @.str.56, ptr noundef %call1.i.i)
  br label %return

if.end:                                           ; preds = %entry
  br i1 %tobool.not.i.i.i.i, label %qio_channel_websock_date_str.exit, label %if.then.i.i.i

if.then.i.i.i:                                    ; preds = %if.end
  call void @g_date_time_unref(ptr noundef nonnull %call.i.i) #15
  br label %qio_channel_websock_date_str.exit

qio_channel_websock_date_str.exit:                ; preds = %if.end, %if.then.i.i.i
  %0 = load ptr, ptr %accept, align 8
  %.str.57..str.58 = select i1 %use_protocols, ptr @.str.57, ptr @.str.58
  call void (ptr, ptr, ...) @qio_channel_websock_handshake_send_res(ptr noundef %ioc, ptr noundef nonnull %.str.57..str.58, ptr noundef %call1.i.i, ptr noundef %0)
  call void @g_free(ptr noundef %call1.i.i) #15
  %1 = load ptr, ptr %accept, align 8
  br label %return

return:                                           ; preds = %qio_channel_websock_date_str.exit, %qio_channel_websock_handshake_send_res_err.exit
  %.sink = phi ptr [ %1, %qio_channel_websock_date_str.exit ], [ %call1.i.i, %qio_channel_websock_handshake_send_res_err.exit ]
  call void @g_free(ptr noundef %.sink) #15
  ret void
}